target datalayout = "e-m:e-p270:32:32-p271:32:32-p272:64:64-i64:64-i128:128-f80:128-n8:16:32:64-S128"
target triple = "x86_64-pc-linux-gnu"

%"struct.boost::iostreams::detail::file_descriptor_impl" = type { i32, i32 }
%"class.std::ios_base::failure" = type { %"class.std::system_error" }
%"class.std::system_error" = type { %"class.std::runtime_error", %"class.std::error_code" }
%"class.std::runtime_error" = type { %"class.std::exception", %"struct.std::__cow_string" }
%"class.std::exception" = type { ptr }
%"struct.std::__cow_string" = type { %union.anon }
%union.anon = type { ptr }
%"class.std::error_code" = type { i32, ptr }
%"class.boost::iostreams::file_descriptor" = type { %"class.boost::shared_ptr" }
%"class.boost::shared_ptr" = type { ptr, %"class.boost::detail::shared_count" }
%"class.boost::detail::shared_count" = type { ptr }

@.str.2 = private unnamed_addr constant [20 x i8] c"failed closing file\00", align 1
@_ZN5boost9iostreams6detail20file_descriptor_implC1Ev = hidden unnamed_addr alias void (ptr), ptr @_ZN5boost9iostreams6detail20file_descriptor_implC2Ev
@_ZN5boost9iostreams6detail20file_descriptor_implD1Ev = hidden unnamed_addr alias void (ptr), ptr @_ZN5boost9iostreams6detail20file_descriptor_implD2Ev

; Function Attrs: inlinehint mustprogress uwtable
define linkonce_odr hidden void @_ZN5boost9iostreams6detail20throw_system_failureEPKc(ptr noundef %0) #8 comdat personality ptr @__gxx_personality_v0 {
  %2 = alloca ptr, align 8
  %3 = alloca %"class.std::ios_base::failure", align 8
  %4 = alloca ptr, align 8
  %5 = alloca i32, align 4
  store ptr %0, ptr %2, align 8, !tbaa !3
  call void @llvm.lifetime.start.p0(i64 32, ptr %3) #20
  %6 = load ptr, ptr %2, align 8, !tbaa !3
  call void @_ZN5boost9iostreams6detail14system_failureB5cxx11EPKc(ptr dead_on_unwind writable sret(%"class.std::ios_base::failure") align 8 %3, ptr noundef %6)
  invoke void @_ZN5boost15throw_exceptionINSt8ios_base7failureB5cxx11EEEvRKT_(ptr noundef nonnull align 8 dereferenceable(32) %3) #21
          to label %7 unwind label %8

7:                                                ; preds = %1
  unreachable

8:                                                ; preds = %1
  %9 = landingpad { ptr, i32 }
          cleanup
  %10 = extractvalue { ptr, i32 } %9, 0
  store ptr %10, ptr %4, align 8
  %11 = extractvalue { ptr, i32 } %9, 1
  store i32 %11, ptr %5, align 4
  call void @_ZNSt8ios_base7failureB5cxx11D1Ev(ptr noundef nonnull align 8 dereferenceable(32) %3) #20
  call void @llvm.lifetime.end.p0(i64 32, ptr %3) #20
  br label %12

12:                                               ; preds = %8
  %13 = load ptr, ptr %4, align 8
  %14 = load i32, ptr %5, align 4
  %15 = insertvalue { ptr, i32 } poison, ptr %13, 0
  %16 = insertvalue { ptr, i32 } %15, i32 %14, 1
  resume { ptr, i32 } %16
}

; Function Attrs: mustprogress nounwind uwtable
define hidden noundef i32 @_ZN5boost9iostreams6detail20file_descriptor_impl14invalid_handleEv() #1 align 2 {
  ret i32 -1
}

; Function Attrs: mustprogress uwtable
define hidden void @_ZN5boost9iostreams6detail20file_descriptor_impl10close_implEbb(ptr noundef nonnull align 4 dereferenceable(8) %0, i1 noundef zeroext %1, i1 noundef zeroext %2) #0 align 2 {
  %4 = alloca ptr, align 8
  %5 = alloca i8, align 1
  %6 = alloca i8, align 1
  %7 = alloca i8, align 1
  store ptr %0, ptr %4, align 8, !tbaa !3
  %8 = zext i1 %1 to i8
  store i8 %8, ptr %5, align 1, !tbaa !11
  %9 = zext i1 %2 to i8
  store i8 %9, ptr %6, align 1, !tbaa !11
  %10 = load ptr, ptr %4, align 8
  %11 = getelementptr inbounds nuw %"struct.boost::iostreams::detail::file_descriptor_impl", ptr %10, i32 0, i32 0
  %12 = load i32, ptr %11, align 4, !tbaa !7
  %13 = call noundef i32 @_ZN5boost9iostreams6detail20file_descriptor_impl14invalid_handleEv()
  %14 = icmp ne i32 %12, %13
  br i1 %14, label %15, label %35

15:                                               ; preds = %3
  call void @llvm.lifetime.start.p0(i64 1, ptr %7) #20
  store i8 1, ptr %7, align 1, !tbaa !11
  %16 = load i8, ptr %5, align 1, !tbaa !11, !range !13, !noundef !14
  %17 = trunc i8 %16 to i1
  br i1 %17, label %18, label %24

18:                                               ; preds = %15
  %19 = getelementptr inbounds nuw %"struct.boost::iostreams::detail::file_descriptor_impl", ptr %10, i32 0, i32 0
  %20 = load i32, ptr %19, align 4, !tbaa !7
  %21 = call i32 @close(i32 noundef %20)
  %22 = icmp ne i32 %21, -1
  %23 = zext i1 %22 to i8
  store i8 %23, ptr %7, align 1, !tbaa !11
  br label %24

24:                                               ; preds = %18, %15
  %25 = call noundef i32 @_ZN5boost9iostreams6detail20file_descriptor_impl14invalid_handleEv()
  %26 = getelementptr inbounds nuw %"struct.boost::iostreams::detail::file_descriptor_impl", ptr %10, i32 0, i32 0
  store i32 %25, ptr %26, align 4, !tbaa !7
  %27 = getelementptr inbounds nuw %"struct.boost::iostreams::detail::file_descriptor_impl", ptr %10, i32 0, i32 1
  store i32 0, ptr %27, align 4, !tbaa !10
  %28 = load i8, ptr %7, align 1, !tbaa !11, !range !13, !noundef !14
  %29 = trunc i8 %28 to i1
  br i1 %29, label %34, label %30

30:                                               ; preds = %24
  %31 = load i8, ptr %6, align 1, !tbaa !11, !range !13, !noundef !14
  %32 = trunc i8 %31 to i1
  br i1 %32, label %33, label %34

33:                                               ; preds = %30
  call void @_ZN5boost9iostreams6detail20throw_system_failureEPKc(ptr noundef @.str.2)
  br label %34

34:                                               ; preds = %33, %30, %24
  call void @llvm.lifetime.end.p0(i64 1, ptr %7) #20
  br label %35

35:                                               ; preds = %34, %3
  ret void
}

; Function Attrs: mustprogress uwtable
define hidden void @_ZN5boost9iostreams6detail20file_descriptor_impl5closeEv(ptr noundef nonnull align 4 dereferenceable(8) %0) #0 align 2 {
  %2 = alloca ptr, align 8
  store ptr %0, ptr %2, align 8, !tbaa !3
  %3 = load ptr, ptr %2, align 8
  %4 = getelementptr inbounds nuw %"struct.boost::iostreams::detail::file_descriptor_impl", ptr %3, i32 0, i32 1
  %5 = load i32, ptr %4, align 4, !tbaa !10
  %6 = and i32 %5, 2
  %7 = icmp ne i32 %6, 0
  call void @_ZN5boost9iostreams6detail20file_descriptor_impl10close_implEbb(ptr noundef nonnull align 4 dereferenceable(8) %3, i1 noundef zeroext %7, i1 noundef zeroext true)
  ret void
}

; Function Attrs: mustprogress uwtable
define hidden void @_ZN5boost9iostreams6detail20file_descriptor_impl4openEiNS2_5flagsE(ptr noundef nonnull align 4 dereferenceable(8) %0, i32 noundef %1, i32 noundef %2) #0 align 2 personality ptr @__gxx_personality_v0 {
  %4 = alloca ptr, align 8
  %5 = alloca i32, align 4
  %6 = alloca i32, align 4
  %7 = alloca %"struct.boost::iostreams::detail::file_descriptor_impl", align 4
  %8 = alloca ptr, align 8
  %9 = alloca i32, align 4
  store ptr %0, ptr %4, align 8, !tbaa !3
  store i32 %1, ptr %5, align 4, !tbaa !15
  store i32 %2, ptr %6, align 4, !tbaa !16
  %10 = load ptr, ptr %4, align 8
  call void @llvm.lifetime.start.p0(i64 8, ptr %7) #20
  call void @_ZN5boost9iostreams6detail20file_descriptor_implC1Ev(ptr noundef nonnull align 4 dereferenceable(8) %7)
  %11 = getelementptr inbounds nuw %"struct.boost::iostreams::detail::file_descriptor_impl", ptr %10, i32 0, i32 0
  %12 = load i32, ptr %11, align 4, !tbaa !7
  %13 = getelementptr inbounds nuw %"struct.boost::iostreams::detail::file_descriptor_impl", ptr %7, i32 0, i32 0
  store i32 %12, ptr %13, align 4, !tbaa !7
  %14 = getelementptr inbounds nuw %"struct.boost::iostreams::detail::file_descriptor_impl", ptr %10, i32 0, i32 1
  %15 = load i32, ptr %14, align 4, !tbaa !10
  %16 = and i32 %15, 1
  %17 = icmp ne i32 %16, 0
  %18 = select i1 %17, i32 2, i32 0
  %19 = getelementptr inbounds nuw %"struct.boost::iostreams::detail::file_descriptor_impl", ptr %7, i32 0, i32 1
  store i32 %18, ptr %19, align 4, !tbaa !10
  %20 = load i32, ptr %5, align 4, !tbaa !15
  %21 = getelementptr inbounds nuw %"struct.boost::iostreams::detail::file_descriptor_impl", ptr %10, i32 0, i32 0
  store i32 %20, ptr %21, align 4, !tbaa !7
  %22 = load i32, ptr %6, align 4, !tbaa !16
  %23 = getelementptr inbounds nuw %"struct.boost::iostreams::detail::file_descriptor_impl", ptr %10, i32 0, i32 1
  store i32 %22, ptr %23, align 4, !tbaa !10
  invoke void @_ZN5boost9iostreams6detail20file_descriptor_impl5closeEv(ptr noundef nonnull align 4 dereferenceable(8) %7)
          to label %24 unwind label %25

24:                                               ; preds = %3
  call void @_ZN5boost9iostreams6detail20file_descriptor_implD1Ev(ptr noundef nonnull align 4 dereferenceable(8) %7) #20
  call void @llvm.lifetime.end.p0(i64 8, ptr %7) #20
  ret void

25:                                               ; preds = %3
  %26 = landingpad { ptr, i32 }
          cleanup
  %27 = extractvalue { ptr, i32 } %26, 0
  store ptr %27, ptr %8, align 8
  %28 = extractvalue { ptr, i32 } %26, 1
  store i32 %28, ptr %9, align 4
  call void @_ZN5boost9iostreams6detail20file_descriptor_implD1Ev(ptr noundef nonnull align 4 dereferenceable(8) %7) #20
  call void @llvm.lifetime.end.p0(i64 8, ptr %7) #20
  br label %29

29:                                               ; preds = %25
  %30 = load ptr, ptr %8, align 8
  %31 = load i32, ptr %9, align 4
  %32 = insertvalue { ptr, i32 } poison, ptr %30, 0
  %33 = insertvalue { ptr, i32 } %32, i32 %31, 1
  resume { ptr, i32 } %33
}

; Function Attrs: mustprogress nounwind uwtable
define linkonce_odr hidden noundef ptr @_ZNK5boost10shared_ptrINS_9iostreams6detail20file_descriptor_implEEptEv(ptr noundef nonnull align 8 dereferenceable(16) %0) #1 comdat align 2 {
  %2 = alloca ptr, align 8
  store ptr %0, ptr %2, align 8, !tbaa !3
  %3 = load ptr, ptr %2, align 8
  %4 = getelementptr inbounds nuw %"class.boost::shared_ptr", ptr %3, i32 0, i32 0
  %5 = load ptr, ptr %4, align 8, !tbaa !27
  ret ptr %5
}

; Function Attrs: mustprogress nounwind uwtable
define linkonce_odr hidden void @_ZN5boost6detail12shared_countC2Ev(ptr noundef nonnull align 8 dereferenceable(8) %0) unnamed_addr #1 comdat align 2 {
  %2 = alloca ptr, align 8
  store ptr %0, ptr %2, align 8, !tbaa !3
  %3 = load ptr, ptr %2, align 8
  %4 = getelementptr inbounds nuw %"class.boost::detail::shared_count", ptr %3, i32 0, i32 0
  store ptr null, ptr %4, align 8, !tbaa !45
  ret void
}

; Function Attrs: mustprogress uwtable
define void @_ZN5boost9iostreams15file_descriptor4openEiNS0_21file_descriptor_flagsE(ptr noundef nonnull align 8 dereferenceable(16) %0, i32 noundef %1, i32 noundef %2) #0 align 2 {
  %4 = alloca ptr, align 8
  %5 = alloca i32, align 4
  %6 = alloca i32, align 4
  store ptr %0, ptr %4, align 8, !tbaa !3
  store i32 %1, ptr %5, align 4, !tbaa !15
  store i32 %2, ptr %6, align 4, !tbaa !30
  %7 = load ptr, ptr %4, align 8
  %8 = getelementptr inbounds nuw %"class.boost::iostreams::file_descriptor", ptr %7, i32 0, i32 0
  %9 = call noundef ptr @_ZNK5boost10shared_ptrINS_9iostreams6detail20file_descriptor_implEEptEv(ptr noundef nonnull align 8 dereferenceable(16) %8) #20
  %10 = load i32, ptr %5, align 4, !tbaa !15
  %11 = load i32, ptr %6, align 4, !tbaa !30
  call void @_ZN5boost9iostreams6detail20file_descriptor_impl4openEiNS2_5flagsE(ptr noundef nonnull align 4 dereferenceable(8) %9, i32 noundef %10, i32 noundef %11)
  ret void
}

; Function Attrs: mustprogress uwtable
define linkonce_odr hidden void @_ZN5boost10shared_ptrINS_9iostreams6detail20file_descriptor_implEEC2IS3_EEPT_(ptr noundef nonnull align 8 dereferenceable(16) %0, ptr noundef %1) unnamed_addr #0 comdat align 2 personality ptr @__gxx_personality_v0 {
  %3 = alloca ptr, align 8
  %4 = alloca ptr, align 8
  %5 = alloca ptr, align 8
  %6 = alloca i32, align 4
  store ptr %0, ptr %3, align 8, !tbaa !3
  store ptr %1, ptr %4, align 8, !tbaa !3
  %7 = load ptr, ptr %3, align 8
  %8 = getelementptr inbounds nuw %"class.boost::shared_ptr", ptr %7, i32 0, i32 0
  %9 = load ptr, ptr %4, align 8, !tbaa !3
  store ptr %9, ptr %8, align 8, !tbaa !27
  %10 = getelementptr inbounds nuw %"class.boost::shared_ptr", ptr %7, i32 0, i32 1
  call void @_ZN5boost6detail12shared_countC2Ev(ptr noundef nonnull align 8 dereferenceable(8) %10) #20
  %11 = load ptr, ptr %4, align 8, !tbaa !3
  %12 = getelementptr inbounds nuw %"class.boost::shared_ptr", ptr %7, i32 0, i32 1
  invoke void @_ZN5boost6detail20sp_pointer_constructINS_9iostreams6detail20file_descriptor_implES4_EEvPNS_10shared_ptrIT_EEPT0_RNS0_12shared_countE(ptr noundef %7, ptr noundef %11, ptr noundef nonnull align 8 dereferenceable(8) %12)
          to label %13 unwind label %14

13:                                               ; preds = %2
  ret void

14:                                               ; preds = %2
  %15 = landingpad { ptr, i32 }
          cleanup
  %16 = extractvalue { ptr, i32 } %15, 0
  store ptr %16, ptr %5, align 8
  %17 = extractvalue { ptr, i32 } %15, 1
  store i32 %17, ptr %6, align 4
  call void @_ZN5boost6detail12shared_countD2Ev(ptr noundef nonnull align 8 dereferenceable(8) %10) #20
  br label %18

18:                                               ; preds = %14
  %19 = load ptr, ptr %5, align 8
  %20 = load i32, ptr %6, align 4
  %21 = insertvalue { ptr, i32 } poison, ptr %19, 0
  %22 = insertvalue { ptr, i32 } %21, i32 %20, 1
  resume { ptr, i32 } %22
}

; Function Attrs: mustprogress uwtable
define void @_ZN5boost9iostreams15file_descriptorC2EiNS0_21file_descriptor_flagsE(ptr noundef nonnull align 8 dereferenceable(16) %0, i32 noundef %1, i32 noundef %2) unnamed_addr #0 align 2 personality ptr @__gxx_personality_v0 {
  %4 = alloca ptr, align 8
  %5 = alloca i32, align 4
  %6 = alloca i32, align 4
  %7 = alloca ptr, align 8
  %8 = alloca i32, align 4
  store ptr %0, ptr %4, align 8, !tbaa !3
  store i32 %1, ptr %5, align 4, !tbaa !15
  store i32 %2, ptr %6, align 4, !tbaa !30
  %9 = load ptr, ptr %4, align 8
  %10 = getelementptr inbounds nuw %"class.boost::iostreams::file_descriptor", ptr %9, i32 0, i32 0
  %11 = call noalias noundef nonnull ptr @_Znwm(i64 noundef 8) #24
  invoke void @_ZN5boost9iostreams6detail20file_descriptor_implC1Ev(ptr noundef nonnull align 4 dereferenceable(8) %11)
          to label %12 unwind label %16

12:                                               ; preds = %3
  call void @_ZN5boost10shared_ptrINS_9iostreams6detail20file_descriptor_implEEC2IS3_EEPT_(ptr noundef nonnull align 8 dereferenceable(16) %10, ptr noundef %11)
  %13 = load i32, ptr %5, align 4, !tbaa !15
  %14 = load i32, ptr %6, align 4, !tbaa !30
  invoke void @_ZN5boost9iostreams15file_descriptor4openEiNS0_21file_descriptor_flagsE(ptr noundef nonnull align 8 dereferenceable(16) %9, i32 noundef %13, i32 noundef %14)
          to label %15 unwind label %20

15:                                               ; preds = %12
  ret void

16:                                               ; preds = %3
  %17 = landingpad { ptr, i32 }
          cleanup
  %18 = extractvalue { ptr, i32 } %17, 0
  store ptr %18, ptr %7, align 8
  %19 = extractvalue { ptr, i32 } %17, 1
  store i32 %19, ptr %8, align 4
  call void @_ZdlPvm(ptr noundef %11, i64 noundef 8) #25
  br label %24

20:                                               ; preds = %12
  %21 = landingpad { ptr, i32 }
          cleanup
  %22 = extractvalue { ptr, i32 } %21, 0
  store ptr %22, ptr %7, align 8
  %23 = extractvalue { ptr, i32 } %21, 1
  store i32 %23, ptr %8, align 4
  call void @_ZN5boost10shared_ptrINS_9iostreams6detail20file_descriptor_implEED2Ev(ptr noundef nonnull align 8 dereferenceable(16) %10) #20
  br label %24

24:                                               ; preds = %20, %16
  %25 = load ptr, ptr %7, align 8
  %26 = load i32, ptr %8, align 4
  %27 = insertvalue { ptr, i32 } poison, ptr %25, 0
  %28 = insertvalue { ptr, i32 } %27, i32 %26, 1
  resume { ptr, i32 } %28
}