; Function Attrs: mustprogress uwtable
define void @_ZN5boost9iostreams15file_descriptorC2EiNS0_21file_descriptor_flagsE(ptr noundef nonnull align 8 dereferenceable(16) %0, i32 noundef %1, i32 noundef %2) unnamed_addr #3 align 2 personality ptr @__gxx_personality_v0 {
  %4 = alloca %"class.std::ios_base::failure", align 8
  %5 = alloca %"struct.boost::iostreams::detail::file_descriptor_impl", align 4
  %6 = tail call noalias noundef nonnull dereferenceable(8) ptr @_Znwm(i64 noundef 8) #33
  store i32 -1, ptr %6, align 4, !tbaa !3
  %7 = getelementptr inbounds nuw i8, ptr %6, i64 4
  store i32 0, ptr %7, align 4, !tbaa !8
  store ptr %6, ptr %0, align 8, !tbaa !19
  %8 = getelementptr inbounds nuw i8, ptr %0, i64 8
  store ptr null, ptr %8, align 8, !tbaa !22
  invoke void @_ZN5boost6detail20sp_pointer_constructINS_9iostreams6detail20file_descriptor_implES4_EEvPNS_10shared_ptrIT_EEPT0_RNS0_12shared_countE(ptr noundef nonnull align 8 dereferenceable(16) %0, ptr noundef nonnull %6, ptr noundef nonnull align 8 dereferenceable(8) %8)
          to label %_ZN5boost10shared_ptrINS_9iostreams6detail20file_descriptor_implEEC2IS3_EEPT_.exit unwind label %9

common.resume:                                    ; preds = %.body.i.i, %9
  %common.resume.op = phi { ptr, i32 } [ %10, %9 ], [ %eh.lpad-body.i.i, %.body.i.i ]
  resume { ptr, i32 } %common.resume.op

9:                                                ; preds = %3
  %10 = landingpad { ptr, i32 }
          cleanup
  tail call void @_ZN5boost6detail12shared_countD2Ev(ptr noundef nonnull align 8 dereferenceable(8) %8) #28
  br label %common.resume

_ZN5boost10shared_ptrINS_9iostreams6detail20file_descriptor_implEEC2IS3_EEPT_.exit: ; preds = %3
  %11 = load ptr, ptr %0, align 8, !tbaa !19
  call void @llvm.lifetime.start.p0(i64 8, ptr nonnull %5) #28
  %12 = getelementptr inbounds nuw i8, ptr %5, i64 4
  %13 = load i32, ptr %11, align 4, !tbaa !3
  store i32 %13, ptr %5, align 4, !tbaa !3
  %14 = getelementptr inbounds nuw i8, ptr %11, i64 4
  %15 = load i32, ptr %14, align 4, !tbaa !8
  %16 = shl i32 %15, 1
  %17 = and i32 %16, 2
  store i32 %17, ptr %12, align 4, !tbaa !8
  store i32 %1, ptr %11, align 4, !tbaa !3
  store i32 %2, ptr %14, align 4, !tbaa !8
  %.not.i.i.i.i = icmp eq i32 %13, -1
  %.not.i.i.i = icmp eq i32 %17, 0
  %or.cond.i.i = select i1 %.not.i.i.i.i, i1 true, i1 %.not.i.i.i
  br i1 %or.cond.i.i, label %27, label %18

18:                                               ; preds = %_ZN5boost10shared_ptrINS_9iostreams6detail20file_descriptor_implEEC2IS3_EEPT_.exit
  %19 = invoke i32 @close(i32 noundef %13)
          to label %.noexc.i.i unwind label %25

.noexc.i.i:                                       ; preds = %18
  %20 = icmp eq i32 %19, -1
  store i32 -1, ptr %5, align 4, !tbaa !3
  store i32 0, ptr %12, align 4, !tbaa !8
  br i1 %20, label %21, label %27

21:                                               ; preds = %.noexc.i.i
  call void @llvm.lifetime.start.p0(i64 32, ptr nonnull %4) #28
  invoke void @_ZN5boost9iostreams6detail14system_failureB5cxx11EPKc(ptr dead_on_unwind nonnull writable sret(%"class.std::ios_base::failure") align 8 %4, ptr noundef nonnull @.str.2)
          to label %.noexc4.i.i unwind label %25

.noexc4.i.i:                                      ; preds = %21
  invoke void @_ZN5boost15throw_exceptionINSt8ios_base7failureB5cxx11EEEvRKT_(ptr noundef nonnull align 8 dereferenceable(32) %4) #29
          to label %22 unwind label %23

22:                                               ; preds = %.noexc4.i.i
  unreachable

23:                                               ; preds = %.noexc4.i.i
  %24 = landingpad { ptr, i32 }
          cleanup
  call void @_ZNSt8ios_base7failureB5cxx11D1Ev(ptr noundef nonnull align 8 dereferenceable(32) %4) #28
  call void @llvm.lifetime.end.p0(i64 32, ptr nonnull %4) #28
  br label %.body.i.i

25:                                               ; preds = %21, %18
  %26 = landingpad { ptr, i32 }
          cleanup
  br label %.body.i.i

.body.i.i:                                        ; preds = %25, %23
  %eh.lpad-body.i.i = phi { ptr, i32 } [ %26, %25 ], [ %24, %23 ]
  call void @_ZN5boost9iostreams6detail20file_descriptor_implD2Ev(ptr noundef nonnull align 4 dereferenceable(8) %5) #28
  call void @llvm.lifetime.end.p0(i64 8, ptr nonnull %5) #28
  call void @_ZN5boost10shared_ptrINS_9iostreams6detail20file_descriptor_implEED2Ev(ptr noundef nonnull align 8 dereferenceable(16) %0) #28
  br label %common.resume

27:                                               ; preds = %.noexc.i.i, %_ZN5boost10shared_ptrINS_9iostreams6detail20file_descriptor_implEEC2IS3_EEPT_.exit
  call void @llvm.lifetime.end.p0(i64 8, ptr nonnull %5) #28
  ret void
}